target datalayout = "e-m:e-p270:32:32-p271:32:32-p272:64:64-i64:64-i128:128-f80:128-n8:16:32:64-S128"
target triple = "x86_64-pc-linux-gnu"

%struct.OSQPVectorf_ = type { ptr, i64 }

; Function Attrs: nounwind uwtable
define void @OSQPVectorf_ew_min_vec(ptr noundef %0, ptr noundef %1, ptr noundef %2) #0 {
  %4 = alloca ptr, align 8
  %5 = alloca ptr, align 8
  %6 = alloca ptr, align 8
  %7 = alloca i64, align 8
  %8 = alloca i64, align 8
  %9 = alloca ptr, align 8
  %10 = alloca ptr, align 8
  %11 = alloca ptr, align 8
  store ptr %0, ptr %4, align 8
  store ptr %1, ptr %5, align 8
  store ptr %2, ptr %6, align 8
  %12 = load ptr, ptr %5, align 8
  %13 = getelementptr inbounds %struct.OSQPVectorf_, ptr %12, i32 0, i32 1
  %14 = load i64, ptr %13, align 8
  store i64 %14, ptr %8, align 8
  %15 = load ptr, ptr %5, align 8
  %16 = getelementptr inbounds %struct.OSQPVectorf_, ptr %15, i32 0, i32 0
  %17 = load ptr, ptr %16, align 8
  store ptr %17, ptr %9, align 8
  %18 = load ptr, ptr %6, align 8
  %19 = getelementptr inbounds %struct.OSQPVectorf_, ptr %18, i32 0, i32 0
  %20 = load ptr, ptr %19, align 8
  store ptr %20, ptr %10, align 8
  %21 = load ptr, ptr %4, align 8
  %22 = getelementptr inbounds %struct.OSQPVectorf_, ptr %21, i32 0, i32 0
  %23 = load ptr, ptr %22, align 8
  store ptr %23, ptr %11, align 8
  store i64 0, ptr %7, align 8
  br label %24

24:                                               ; preds = %53, %3
  %25 = load i64, ptr %7, align 8
  %26 = load i64, ptr %8, align 8
  %27 = icmp slt i64 %25, %26
  br i1 %27, label %28, label %56

28:                                               ; preds = %24
  %29 = load ptr, ptr %9, align 8
  %30 = load i64, ptr %7, align 8
  %31 = getelementptr inbounds double, ptr %29, i64 %30
  %32 = load double, ptr %31, align 8
  %33 = load ptr, ptr %10, align 8
  %34 = load i64, ptr %7, align 8
  %35 = getelementptr inbounds double, ptr %33, i64 %34
  %36 = load double, ptr %35, align 8
  %37 = fcmp olt double %32, %36
  br i1 %37, label %38, label %43

38:                                               ; preds = %28
  %39 = load ptr, ptr %9, align 8
  %40 = load i64, ptr %7, align 8
  %41 = getelementptr inbounds double, ptr %39, i64 %40
  %42 = load double, ptr %41, align 8
  br label %48

43:                                               ; preds = %28
  %44 = load ptr, ptr %10, align 8
  %45 = load i64, ptr %7, align 8
  %46 = getelementptr inbounds double, ptr %44, i64 %45
  %47 = load double, ptr %46, align 8
  br label %48

48:                                               ; preds = %43, %38
  %49 = phi double [ %42, %38 ], [ %47, %43 ]
  %50 = load ptr, ptr %11, align 8
  %51 = load i64, ptr %7, align 8
  %52 = getelementptr inbounds double, ptr %50, i64 %51
  store double %49, ptr %52, align 8
  br label %53

53:                                               ; preds = %48
  %54 = load i64, ptr %7, align 8
  %55 = add nsw i64 %54, 1
  store i64 %55, ptr %7, align 8
  br label %24, !llvm.loop !44

56:                                               ; preds = %24
  ret void
}